; Function Attrs: mustprogress sspstrong uwtable
define { ptr, ptr } @_ZN3tbb6detail2r122threading_control_impl13create_clientERNS1_5arenaE(ptr noundef nonnull readonly align 8 captures(none) dereferenceable(40) %0, ptr noundef nonnull align 128 dereferenceable(768) %1) local_unnamed_addr #0 align 2 {
  %3 = load ptr, ptr %0, align 8, !tbaa !47
  %4 = load ptr, ptr %3, align 8, !tbaa !14
  %5 = getelementptr inbounds nuw i8, ptr %4, i64 16
  %6 = load ptr, ptr %5, align 8
  %7 = tail call noundef ptr %6(ptr noundef nonnull align 8 dereferenceable(16) %3, ptr noundef nonnull align 128 dereferenceable(768) %1)
  %8 = getelementptr inbounds nuw i8, ptr %0, i64 8
  %9 = load ptr, ptr %8, align 8, !tbaa !25
  %10 = tail call noundef ptr @_ZN3tbb6detail2r117thread_dispatcher13create_clientERNS1_5arenaE(ptr noundef nonnull align 8 dereferenceable(152) %9, ptr noundef nonnull align 128 dereferenceable(768) %1)
  %.fca.0.insert = insertvalue { ptr, ptr } poison, ptr %7, 0
  %.fca.1.insert = insertvalue { ptr, ptr } %.fca.0.insert, ptr %10, 1
  ret { ptr, ptr } %.fca.1.insert
}